	.file	"test.c"
	.text
Ltext0:
	.def	___map_mman_error;	.scl	3;	.type	32;	.endef
___map_mman_error:
LFB26:
	.file 1 "cuba/mman.c"
	.loc 1 13 0
	.cfi_startproc
	pushl	%ebp
	.cfi_def_cfa_offset 8
	.cfi_offset 5, -8
	movl	%esp, %ebp
	.cfi_def_cfa_register 5
	.loc 1 14 0
	cmpl	$0, 8(%ebp)
	jne	L2
	.loc 1 15 0
	movl	$0, %eax
	jmp	L3
L2:
	.loc 1 17 0
	movl	8(%ebp), %eax
L3:
	.loc 1 18 0
	popl	%ebp
	.cfi_restore 5
	.cfi_def_cfa 4, 4
	ret
	.cfi_endproc
LFE26:
	.def	___map_mmap_prot_page;	.scl	3;	.type	32;	.endef
___map_mmap_prot_page:
LFB27:
	.loc 1 21 0
	.cfi_startproc
	pushl	%ebp
	.cfi_def_cfa_offset 8
	.cfi_offset 5, -8
	movl	%esp, %ebp
	.cfi_def_cfa_register 5
	subl	$16, %esp
	.loc 1 22 0
	movl	$0, -4(%ebp)
	.loc 1 24 0
	cmpl	$0, 8(%ebp)
	jne	L5
	.loc 1 25 0
	movl	-4(%ebp), %eax
	jmp	L6
L5:
	.loc 1 27 0
	movl	8(%ebp), %eax
	andl	$4, %eax
	testl	%eax, %eax
	je	L7
	.loc 1 29 0
	movl	8(%ebp), %eax
	andl	$2, %eax
	.loc 1 30 0
	testl	%eax, %eax
	je	L8
	.loc 1 30 0 is_stmt 0 discriminator 1
	movl	$64, %eax
	jmp	L9
L8:
	.loc 1 30 0 discriminator 2
	movl	$32, %eax
L9:
	.loc 1 29 0 is_stmt 1
	movl	%eax, -4(%ebp)
	jmp	L10
L7:
	.loc 1 34 0
	movl	8(%ebp), %eax
	andl	$2, %eax
	.loc 1 35 0
	testl	%eax, %eax
	je	L11
	.loc 1 35 0 is_stmt 0 discriminator 1
	movl	$4, %eax
	jmp	L12
L11:
	.loc 1 35 0 discriminator 2
	movl	$2, %eax
L12:
	.loc 1 34 0 is_stmt 1
	movl	%eax, -4(%ebp)
L10:
	.loc 1 38 0
	movl	-4(%ebp), %eax
L6:
	.loc 1 39 0
	leave
	.cfi_restore 5
	.cfi_def_cfa 4, 4
	ret
	.cfi_endproc
LFE27:
	.def	___map_mmap_prot_file;	.scl	3;	.type	32;	.endef
___map_mmap_prot_file:
LFB28:
	.loc 1 42 0
	.cfi_startproc
	pushl	%ebp
	.cfi_def_cfa_offset 8
	.cfi_offset 5, -8
	movl	%esp, %ebp
	.cfi_def_cfa_register 5
	subl	$16, %esp
	.loc 1 43 0
	movl	$0, -4(%ebp)
	.loc 1 45 0
	cmpl	$0, 8(%ebp)
	jne	L14
	.loc 1 46 0
	movl	-4(%ebp), %eax
	jmp	L15
L14:
	.loc 1 48 0
	movl	8(%ebp), %eax
	andl	$1, %eax
	testl	%eax, %eax
	je	L16
	.loc 1 49 0
	orl	$4, -4(%ebp)
L16:
	.loc 1 50 0
	movl	8(%ebp), %eax
	andl	$2, %eax
	testl	%eax, %eax
	je	L17
	.loc 1 51 0
	orl	$2, -4(%ebp)
L17:
	.loc 1 52 0
	movl	8(%ebp), %eax
	andl	$4, %eax
	testl	%eax, %eax
	je	L18
	.loc 1 53 0
	orl	$32, -4(%ebp)
L18:
	.loc 1 55 0
	movl	-4(%ebp), %eax
L15:
	.loc 1 56 0
	leave
	.cfi_restore 5
	.cfi_def_cfa 4, 4
	ret
	.cfi_endproc
LFE28:
	.globl	_mmap
	.def	_mmap;	.scl	2;	.type	32;	.endef
_mmap:
LFB29:
	.loc 1 59 0
	.cfi_startproc
	pushl	%ebp
	.cfi_def_cfa_offset 8
	.cfi_offset 5, -8
	movl	%esp, %ebp
	.cfi_def_cfa_register 5
	pushl	%ebx
	subl	$84, %esp
	.cfi_offset 3, -12
	.loc 1 62 0
	movl	$-1, -12(%ebp)
	.loc 1 69 0
	movl	28(%ebp), %eax
	movl	%eax, -16(%ebp)
	.loc 1 71 0
	movl	$0, -20(%ebp)
	.loc 1 73 0
	movl	16(%ebp), %eax
	movl	%eax, (%esp)
	call	___map_mmap_prot_page
	movl	%eax, -24(%ebp)
	.loc 1 74 0
	movl	16(%ebp), %eax
	movl	%eax, (%esp)
	call	___map_mmap_prot_file
	movl	%eax, -28(%ebp)
	.loc 1 76 0
	movl	12(%ebp), %edx
	movl	28(%ebp), %eax
	addl	%edx, %eax
	movl	%eax, -32(%ebp)
	.loc 1 78 0
	movl	-32(%ebp), %eax
	movl	%eax, -36(%ebp)
	.loc 1 80 0
	movl	$0, -40(%ebp)
	.loc 1 87 0
	call	__errno
	movl	$0, (%eax)
	.loc 1 89 0
	cmpl	$0, 12(%ebp)
	je	L20
	.loc 1 91 0
	movl	20(%ebp), %eax
	andl	$16, %eax
	testl	%eax, %eax
	jne	L20
	.loc 1 93 0
	cmpl	$4, 16(%ebp)
	jne	L21
L20:
	.loc 1 95 0
	call	__errno
	movl	$22, (%eax)
	.loc 1 96 0
	movl	$-1, %eax
	jmp	L22
L21:
	.loc 1 99 0
	movl	20(%ebp), %eax
	andl	$32, %eax
	.loc 1 100 0
	testl	%eax, %eax
	jne	L23
	.loc 1 100 0 is_stmt 0 discriminator 1
	movl	24(%ebp), %eax
	movl	%eax, (%esp)
	call	__get_osfhandle
	jmp	L24
L23:
	.loc 1 100 0 discriminator 2
	movl	$-1, %eax
L24:
	.loc 1 99 0 is_stmt 1
	movl	%eax, -44(%ebp)
	.loc 1 102 0
	movl	20(%ebp), %eax
	andl	$32, %eax
	testl	%eax, %eax
	jne	L25
	.loc 1 102 0 is_stmt 0 discriminator 1
	cmpl	$-1, -44(%ebp)
	jne	L25
	.loc 1 104 0 is_stmt 1
	call	__errno
	movl	$9, (%eax)
	.loc 1 105 0
	movl	$-1, %eax
	jmp	L22
L25:
	.loc 1 108 0
	movl	$0, 20(%esp)
	movl	-36(%ebp), %eax
	movl	%eax, 16(%esp)
	movl	-40(%ebp), %eax
	movl	%eax, 12(%esp)
	movl	-24(%ebp), %eax
	movl	%eax, 8(%esp)
	movl	$0, 4(%esp)
	movl	-44(%ebp), %eax
	movl	%eax, (%esp)
	call	_CreateFileMappingA@24
	subl	$24, %esp
	movl	%eax, -48(%ebp)
	.loc 1 110 0
	cmpl	$0, -48(%ebp)
	jne	L26
	.loc 1 112 0
	call	__errno
	movl	%eax, %ebx
	call	_GetLastError@0
	movl	$1, 4(%esp)
	movl	%eax, (%esp)
	call	___map_mman_error
	movl	%eax, (%ebx)
	.loc 1 113 0
	movl	$-1, %eax
	jmp	L22
L26:
	.loc 1 116 0
	movl	12(%ebp), %eax
	movl	%eax, 16(%esp)
	movl	-16(%ebp), %eax
	movl	%eax, 12(%esp)
	movl	-20(%ebp), %eax
	movl	%eax, 8(%esp)
	movl	-28(%ebp), %eax
	movl	%eax, 4(%esp)
	movl	-48(%ebp), %eax
	movl	%eax, (%esp)
	call	_MapViewOfFile@20
	subl	$20, %esp
	movl	%eax, -12(%ebp)
	.loc 1 118 0
	movl	-48(%ebp), %eax
	movl	%eax, (%esp)
	call	_CloseHandle@4
	subl	$4, %esp
	.loc 1 120 0
	cmpl	$0, -12(%ebp)
	jne	L27
	.loc 1 122 0
	call	__errno
	movl	%eax, %ebx
	call	_GetLastError@0
	movl	$1, 4(%esp)
	movl	%eax, (%esp)
	call	___map_mman_error
	movl	%eax, (%ebx)
	.loc 1 123 0
	movl	$-1, %eax
	jmp	L22
L27:
	.loc 1 126 0
	movl	-12(%ebp), %eax
L22:
	.loc 1 127 0
	movl	-4(%ebp), %ebx
	leave
	.cfi_restore 5
	.cfi_restore 3
	.cfi_def_cfa 4, 4
	ret
	.cfi_endproc
LFE29:
	.globl	_munmap
	.def	_munmap;	.scl	2;	.type	32;	.endef
_munmap:
LFB30:
	.loc 1 130 0
	.cfi_startproc
	pushl	%ebp
	.cfi_def_cfa_offset 8
	.cfi_offset 5, -8
	movl	%esp, %ebp
	.cfi_def_cfa_register 5
	pushl	%ebx
	subl	$20, %esp
	.cfi_offset 3, -12
	.loc 1 131 0
	movl	8(%ebp), %eax
	movl	%eax, (%esp)
	call	_UnmapViewOfFile@4
	subl	$4, %esp
	testl	%eax, %eax
	je	L29
	.loc 1 132 0
	movl	$0, %eax
	jmp	L30
L29:
	.loc 1 134 0
	call	__errno
	movl	%eax, %ebx
	call	_GetLastError@0
	movl	$1, 4(%esp)
	movl	%eax, (%esp)
	call	___map_mman_error
	movl	%eax, (%ebx)
	.loc 1 136 0
	movl	$-1, %eax
L30:
	.loc 1 137 0
	movl	-4(%ebp), %ebx
	leave
	.cfi_restore 5
	.cfi_restore 3
	.cfi_def_cfa 4, 4
	ret
	.cfi_endproc
LFE30:
	.globl	__mprotect
	.def	__mprotect;	.scl	2;	.type	32;	.endef
__mprotect:
LFB31:
	.loc 1 140 0
	.cfi_startproc
	pushl	%ebp
	.cfi_def_cfa_offset 8
	.cfi_offset 5, -8
	movl	%esp, %ebp
	.cfi_def_cfa_register 5
	pushl	%ebx
	subl	$36, %esp
	.cfi_offset 3, -12
	.loc 1 141 0
	movl	16(%ebp), %eax
	movl	%eax, (%esp)
	call	___map_mmap_prot_page
	movl	%eax, -12(%ebp)
	.loc 1 142 0
	movl	$0, -16(%ebp)
	.loc 1 144 0
	leal	-16(%ebp), %eax
	movl	%eax, 12(%esp)
	movl	-12(%ebp), %eax
	movl	%eax, 8(%esp)
	movl	12(%ebp), %eax
	movl	%eax, 4(%esp)
	movl	8(%ebp), %eax
	movl	%eax, (%esp)
	call	_VirtualProtect@16
	subl	$16, %esp
	testl	%eax, %eax
	je	L32
	.loc 1 145 0
	movl	$0, %eax
	jmp	L34
L32:
	.loc 1 147 0
	call	__errno
	movl	%eax, %ebx
	call	_GetLastError@0
	movl	$1, 4(%esp)
	movl	%eax, (%esp)
	call	___map_mman_error
	movl	%eax, (%ebx)
	.loc 1 149 0
	movl	$-1, %eax
L34:
	.loc 1 150 0 discriminator 1
	movl	-4(%ebp), %ebx
	leave
	.cfi_restore 5
	.cfi_restore 3
	.cfi_def_cfa 4, 4
	ret
	.cfi_endproc
LFE31:
	.globl	_msync
	.def	_msync;	.scl	2;	.type	32;	.endef
_msync:
LFB32:
	.loc 1 153 0
	.cfi_startproc
	pushl	%ebp
	.cfi_def_cfa_offset 8
	.cfi_offset 5, -8
	movl	%esp, %ebp
	.cfi_def_cfa_register 5
	pushl	%ebx
	subl	$20, %esp
	.cfi_offset 3, -12
	.loc 1 154 0
	movl	12(%ebp), %eax
	movl	%eax, 4(%esp)
	movl	8(%ebp), %eax
	movl	%eax, (%esp)
	call	_FlushViewOfFile@8
	subl	$8, %esp
	testl	%eax, %eax
	je	L36
	.loc 1 155 0
	movl	$0, %eax
	jmp	L37
L36:
	.loc 1 157 0
	call	__errno
	movl	%eax, %ebx
	call	_GetLastError@0
	movl	$1, 4(%esp)
	movl	%eax, (%esp)
	call	___map_mman_error
	movl	%eax, (%ebx)
	.loc 1 159 0
	movl	$-1, %eax
L37:
	.loc 1 160 0
	movl	-4(%ebp), %ebx
	leave
	.cfi_restore 5
	.cfi_restore 3
	.cfi_def_cfa 4, 4
	ret
	.cfi_endproc
LFE32:
	.globl	_mlock
	.def	_mlock;	.scl	2;	.type	32;	.endef
_mlock:
LFB33:
	.loc 1 163 0
	.cfi_startproc
	pushl	%ebp
	.cfi_def_cfa_offset 8
	.cfi_offset 5, -8
	movl	%esp, %ebp
	.cfi_def_cfa_register 5
	pushl	%ebx
	subl	$20, %esp
	.cfi_offset 3, -12
	.loc 1 164 0
	movl	12(%ebp), %eax
	movl	%eax, 4(%esp)
	movl	8(%ebp), %eax
	movl	%eax, (%esp)
	call	_VirtualLock@8
	subl	$8, %esp
	testl	%eax, %eax
	je	L39
	.loc 1 165 0
	movl	$0, %eax
	jmp	L40
L39:
	.loc 1 167 0
	call	__errno
	movl	%eax, %ebx
	call	_GetLastError@0
	movl	$1, 4(%esp)
	movl	%eax, (%esp)
	call	___map_mman_error
	movl	%eax, (%ebx)
	.loc 1 169 0
	movl	$-1, %eax
L40:
	.loc 1 170 0
	movl	-4(%ebp), %ebx
	leave
	.cfi_restore 5
	.cfi_restore 3
	.cfi_def_cfa 4, 4
	ret
	.cfi_endproc
LFE33:
	.globl	_munlock
	.def	_munlock;	.scl	2;	.type	32;	.endef
_munlock:
LFB34:
	.loc 1 173 0
	.cfi_startproc
	pushl	%ebp
	.cfi_def_cfa_offset 8
	.cfi_offset 5, -8
	movl	%esp, %ebp
	.cfi_def_cfa_register 5
	pushl	%ebx
	subl	$20, %esp
	.cfi_offset 3, -12
	.loc 1 174 0
	movl	12(%ebp), %eax
	movl	%eax, 4(%esp)
	movl	8(%ebp), %eax
	movl	%eax, (%esp)
	call	_VirtualUnlock@8
	subl	$8, %esp
	testl	%eax, %eax
	je	L42
	.loc 1 175 0
	movl	$0, %eax
	jmp	L43
L42:
	.loc 1 177 0
	call	__errno
	movl	%eax, %ebx
	call	_GetLastError@0
	movl	$1, 4(%esp)
	movl	%eax, (%esp)
	call	___map_mman_error
	movl	%eax, (%ebx)
	.loc 1 179 0
	movl	$-1, %eax
L43:
	.loc 1 180 0
	movl	-4(%ebp), %ebx
	leave
	.cfi_restore 5
	.cfi_restore 3
	.cfi_def_cfa 4, 4
	ret
	.cfi_endproc
LFE34:
	.def	___main;	.scl	2;	.type	32;	.endef
	.section .rdata,"dr"
LC0:
	.ascii "r\0"
LC1:
	.ascii "asm/test1.asm\0"
LC2:
	.ascii "err\0"
LC3:
	.ascii "%i\0"
	.text
	.globl	_main
	.def	_main;	.scl	2;	.type	32;	.endef
_main:
LFB35:
	.file 2 "test.c"
	.loc 2 6 0
	.cfi_startproc
	pushl	%ebp
	.cfi_def_cfa_offset 8
	.cfi_offset 5, -8
	movl	%esp, %ebp
	.cfi_def_cfa_register 5
	pushl	%edi
	pushl	%esi
	pushl	%ebx
	andl	$-16, %esp
	subl	$1056, %esp
	.cfi_offset 7, -12
	.cfi_offset 6, -16
	.cfi_offset 3, -20
	.loc 2 6 0
	call	___main
LVL0:
	.loc 2 8 0
	movl	$LC0, 4(%esp)
	movl	$LC1, (%esp)
	call	_fopen
	movl	%eax, 1052(%esp)
	.loc 2 10 0
	cmpl	$0, 1052(%esp)
	jne	L45
	.loc 2 11 0
	movl	$LC2, (%esp)
	call	_printf
	.loc 2 12 0
	movl	$1, (%esp)
	call	_exit
L45:
	.loc 2 15 0
	movl	1052(%esp), %eax
	movl	%eax, 8(%esp)
	movl	$1000, 4(%esp)
	leal	44(%esp), %eax
	movl	%eax, (%esp)
	call	_fgets
	testl	%eax, %eax
	je	L46
LBB2:
	.loc 2 17 0
	movl	$0, 20(%esp)
	movl	$-1, 16(%esp)
	movl	$34, 12(%esp)
	movl	$7, 8(%esp)
	movl	$1000, 4(%esp)
	movl	$0, (%esp)
	call	_mmap
	movl	%eax, 1048(%esp)
	.loc 2 20 0
	movl	1048(%esp), %eax
	movl	%eax, %edx
	leal	44(%esp), %eax
	movl	$1000, %ecx
	movl	(%eax), %ebx
	movl	%ebx, (%edx)
	movl	-4(%eax,%ecx), %ebx
	movl	%ebx, -4(%edx,%ecx)
	leal	4(%edx), %ebx
	andl	$-4, %ebx
	subl	%ebx, %edx
	subl	%edx, %eax
	addl	%edx, %ecx
	andl	$-4, %ecx
	shrl	$2, %ecx
	movl	%ecx, %edx
	movl	%ebx, %edi
	movl	%eax, %esi
	movl	%edx, %ecx
	rep movsl
	.loc 2 23 0
	movl	1048(%esp), %eax
	call	*%eax
LVL1:
	movl	%eax, 1044(%esp)
	.loc 2 24 0
	movl	1044(%esp), %eax
	movl	%eax, 4(%esp)
	movl	$LC3, (%esp)
	call	_printf
	.loc 2 26 0
	movl	1044(%esp), %eax
	jmp	L48
L46:
LBE2:
	.loc 2 29 0
	movl	1052(%esp), %eax
	movl	%eax, (%esp)
	call	_fclose
	.loc 2 31 0
	movl	$0, %eax
L48:
	.loc 2 32 0 discriminator 1
	leal	-12(%ebp), %esp
	popl	%ebx
	.cfi_restore 3
	popl	%esi
	.cfi_restore 6
	popl	%edi
	.cfi_restore 7
	popl	%ebp
	.cfi_restore 5
	.cfi_def_cfa 4, 4
	ret
	.cfi_endproc
LFE35:
Letext0:
	.file 3 "e:/progs/libs/mingw/lib/gcc/mingw32/6.3.0/include/stddef.h"
	.file 4 "e:/progs/libs/mingw/include/sys/types.h"
	.file 5 "e:/progs/libs/mingw/include/stdio.h"
	.file 6 "e:/progs/libs/mingw/include/stdlib.h"
	.file 7 "e:/progs/libs/mingw/include/windef.h"
	.file 8 "e:/progs/libs/mingw/include/winnt.h"
	.file 9 "e:/progs/libs/mingw/include/basetyps.h"
	.file 10 "e:/progs/libs/mingw/include/unknwn.h"
	.file 11 "e:/progs/libs/mingw/include/objidl.h"
	.file 12 "e:/progs/libs/mingw/include/cguid.h"
	.file 13 "e:/progs/libs/mingw/include/olectlid.h"
	.file 14 "e:/progs/libs/mingw/include/oaidl.h"